target datalayout = "e-m:e-p270:32:32-p271:32:32-p272:64:64-i64:64-i128:128-f80:128-n8:16:32:64-S128"
target triple = "x86_64-pc-linux-gnu"

%struct.decContext = type { i32, i32, i32, i32, i32, i32, i8 }

@.str = private unnamed_addr constant [18 x i8] c"Conversion syntax\00", align 1
@.str.1 = private unnamed_addr constant [17 x i8] c"Division by zero\00", align 1
@.str.2 = private unnamed_addr constant [20 x i8] c"Division impossible\00", align 1
@.str.3 = private unnamed_addr constant [19 x i8] c"Division undefined\00", align 1
@.str.4 = private unnamed_addr constant [8 x i8] c"Inexact\00", align 1
@.str.5 = private unnamed_addr constant [21 x i8] c"Insufficient storage\00", align 1
@.str.6 = private unnamed_addr constant [16 x i8] c"Invalid context\00", align 1
@.str.7 = private unnamed_addr constant [18 x i8] c"Invalid operation\00", align 1
@.str.8 = private unnamed_addr constant [9 x i8] c"Overflow\00", align 1
@.str.9 = private unnamed_addr constant [8 x i8] c"Clamped\00", align 1
@.str.10 = private unnamed_addr constant [8 x i8] c"Rounded\00", align 1
@.str.11 = private unnamed_addr constant [10 x i8] c"Subnormal\00", align 1
@.str.12 = private unnamed_addr constant [10 x i8] c"Underflow\00", align 1
@.str.13 = private unnamed_addr constant [10 x i8] c"No status\00", align 1
@.str.14 = private unnamed_addr constant [16 x i8] c"Multiple status\00", align 1

; Function Attrs: mustprogress nounwind uwtable
define ptr @uprv_decContextStatusToString_77(ptr noundef %0) #0 {
  %2 = alloca ptr, align 8
  %3 = alloca ptr, align 8
  %4 = alloca i32, align 4
  %5 = alloca i32, align 4
  store ptr %0, ptr %3, align 8, !tbaa !3
  call void @llvm.lifetime.start.p0(i64 4, ptr %4) #5
  %6 = load ptr, ptr %3, align 8, !tbaa !3
  %7 = getelementptr inbounds nuw %struct.decContext, ptr %6, i32 0, i32 5
  %8 = load i32, ptr %7, align 4, !tbaa !9
  store i32 %8, ptr %4, align 4, !tbaa !7
  %9 = load i32, ptr %4, align 4, !tbaa !7
  %10 = icmp eq i32 %9, 128
  br i1 %10, label %11, label %12

11:                                               ; preds = %1
  store ptr @.str.7, ptr %2, align 8
  store i32 1, ptr %5, align 4
  br label %65

12:                                               ; preds = %1
  %13 = load i32, ptr %4, align 4, !tbaa !7
  %14 = icmp eq i32 %13, 2
  br i1 %14, label %15, label %16

15:                                               ; preds = %12
  store ptr @.str.1, ptr %2, align 8
  store i32 1, ptr %5, align 4
  br label %65

16:                                               ; preds = %12
  %17 = load i32, ptr %4, align 4, !tbaa !7
  %18 = icmp eq i32 %17, 512
  br i1 %18, label %19, label %20

19:                                               ; preds = %16
  store ptr @.str.8, ptr %2, align 8
  store i32 1, ptr %5, align 4
  br label %65

20:                                               ; preds = %16
  %21 = load i32, ptr %4, align 4, !tbaa !7
  %22 = icmp eq i32 %21, 8192
  br i1 %22, label %23, label %24

23:                                               ; preds = %20
  store ptr @.str.12, ptr %2, align 8
  store i32 1, ptr %5, align 4
  br label %65

24:                                               ; preds = %20
  %25 = load i32, ptr %4, align 4, !tbaa !7
  %26 = icmp eq i32 %25, 32
  br i1 %26, label %27, label %28

27:                                               ; preds = %24
  store ptr @.str.4, ptr %2, align 8
  store i32 1, ptr %5, align 4
  br label %65

28:                                               ; preds = %24
  %29 = load i32, ptr %4, align 4, !tbaa !7
  %30 = icmp eq i32 %29, 4
  br i1 %30, label %31, label %32

31:                                               ; preds = %28
  store ptr @.str.2, ptr %2, align 8
  store i32 1, ptr %5, align 4
  br label %65

32:                                               ; preds = %28
  %33 = load i32, ptr %4, align 4, !tbaa !7
  %34 = icmp eq i32 %33, 8
  br i1 %34, label %35, label %36

35:                                               ; preds = %32
  store ptr @.str.3, ptr %2, align 8
  store i32 1, ptr %5, align 4
  br label %65

36:                                               ; preds = %32
  %37 = load i32, ptr %4, align 4, !tbaa !7
  %38 = icmp eq i32 %37, 2048
  br i1 %38, label %39, label %40

39:                                               ; preds = %36
  store ptr @.str.10, ptr %2, align 8
  store i32 1, ptr %5, align 4
  br label %65

40:                                               ; preds = %36
  %41 = load i32, ptr %4, align 4, !tbaa !7
  %42 = icmp eq i32 %41, 1024
  br i1 %42, label %43, label %44

43:                                               ; preds = %40
  store ptr @.str.9, ptr %2, align 8
  store i32 1, ptr %5, align 4
  br label %65

44:                                               ; preds = %40
  %45 = load i32, ptr %4, align 4, !tbaa !7
  %46 = icmp eq i32 %45, 4096
  br i1 %46, label %47, label %48

47:                                               ; preds = %44
  store ptr @.str.11, ptr %2, align 8
  store i32 1, ptr %5, align 4
  br label %65

48:                                               ; preds = %44
  %49 = load i32, ptr %4, align 4, !tbaa !7
  %50 = icmp eq i32 %49, 1
  br i1 %50, label %51, label %52

51:                                               ; preds = %48
  store ptr @.str, ptr %2, align 8
  store i32 1, ptr %5, align 4
  br label %65

52:                                               ; preds = %48
  %53 = load i32, ptr %4, align 4, !tbaa !7
  %54 = icmp eq i32 %53, 16
  br i1 %54, label %55, label %56

55:                                               ; preds = %52
  store ptr @.str.5, ptr %2, align 8
  store i32 1, ptr %5, align 4
  br label %65

56:                                               ; preds = %52
  %57 = load i32, ptr %4, align 4, !tbaa !7
  %58 = icmp eq i32 %57, 64
  br i1 %58, label %59, label %60

59:                                               ; preds = %56
  store ptr @.str.6, ptr %2, align 8
  store i32 1, ptr %5, align 4
  br label %65

60:                                               ; preds = %56
  %61 = load i32, ptr %4, align 4, !tbaa !7
  %62 = icmp eq i32 %61, 0
  br i1 %62, label %63, label %64

63:                                               ; preds = %60
  store ptr @.str.13, ptr %2, align 8
  store i32 1, ptr %5, align 4
  br label %65

64:                                               ; preds = %60
  store ptr @.str.14, ptr %2, align 8
  store i32 1, ptr %5, align 4
  br label %65

65:                                               ; preds = %64, %63, %59, %55, %51, %47, %43, %39, %35, %31, %27, %23, %19, %15, %11
  call void @llvm.lifetime.end.p0(i64 4, ptr %4) #5
  %66 = load ptr, ptr %2, align 8
  ret ptr %66
}