; Function Attrs: mustprogress nofree norecurse nosync nounwind willreturn memory(argmem: read) uwtable
define noundef nonnull ptr @uprv_decContextStatusToString_77(ptr noundef readonly captures(none) %0) local_unnamed_addr #2 {
  %2 = getelementptr inbounds nuw i8, ptr %0, i64 20
  %3 = load i32, ptr %2, align 4, !tbaa !3
  switch i32 %3, label %17 [
    i32 128, label %18
    i32 2, label %4
    i32 512, label %5
    i32 8192, label %6
    i32 32, label %7
    i32 4, label %8
    i32 8, label %9
    i32 2048, label %10
    i32 1024, label %11
    i32 4096, label %12
    i32 1, label %13
    i32 16, label %14
    i32 64, label %15
    i32 0, label %16
  ]

4:                                                ; preds = %1
  br label %18

5:                                                ; preds = %1
  br label %18

6:                                                ; preds = %1
  br label %18

7:                                                ; preds = %1
  br label %18

8:                                                ; preds = %1
  br label %18

9:                                                ; preds = %1
  br label %18

10:                                               ; preds = %1
  br label %18

11:                                               ; preds = %1
  br label %18

12:                                               ; preds = %1
  br label %18

13:                                               ; preds = %1
  br label %18

14:                                               ; preds = %1
  br label %18

15:                                               ; preds = %1
  br label %18

16:                                               ; preds = %1
  br label %18

17:                                               ; preds = %1
  br label %18

18:                                               ; preds = %1, %17, %16, %15, %14, %13, %12, %11, %10, %9, %8, %7, %6, %5, %4
  %.0 = phi ptr [ @.str.1, %4 ], [ @.str.8, %5 ], [ @.str.12, %6 ], [ @.str.4, %7 ], [ @.str.2, %8 ], [ @.str.3, %9 ], [ @.str.10, %10 ], [ @.str.9, %11 ], [ @.str.11, %12 ], [ @.str, %13 ], [ @.str.5, %14 ], [ @.str.6, %15 ], [ @.str.13, %16 ], [ @.str.14, %17 ], [ @.str.7, %1 ]
  ret ptr %.0
}